; Function Attrs: mustprogress nounwind uwtable
define double @WasmEdge_StatisticsGetInstrPerSecond(ptr noundef %0) local_unnamed_addr #10 personality ptr @__gxx_personality_v0 {
  %.not = icmp eq ptr %0, null
  br i1 %.not, label %18, label %2

2:                                                ; preds = %1
  %3 = getelementptr inbounds i8, ptr %0, i64 24
  %4 = load atomic i64, ptr %3 seq_cst, align 8
  %5 = getelementptr inbounds i8, ptr %0, i64 48
  br label %6

6:                                                ; preds = %6, %2
  %7 = tail call noundef i32 @pthread_rwlock_rdlock(ptr noundef nonnull %5) #37
  switch i32 %7, label %_ZNK8WasmEdge10Statistics10Statistics17getInstrPerSecondEv.exit [
    i32 11, label %6
    i32 35, label %8
  ]

8:                                                ; preds = %6
  invoke void @_ZSt20__throw_system_errori(i32 noundef 35) #38
          to label %.noexc.i.i.i unwind label %9

.noexc.i.i.i:                                     ; preds = %8
  unreachable

9:                                                ; preds = %8
  %10 = landingpad { ptr, i32 }
          catch ptr null
  %11 = extractvalue { ptr, i32 } %10, 0
  tail call void @__clang_call_terminate(ptr %11) #39
  unreachable

_ZNK8WasmEdge10Statistics10Statistics17getInstrPerSecondEv.exit: ; preds = %6
  %12 = uitofp i64 %4 to double
  %13 = getelementptr inbounds i8, ptr %0, i64 216
  %.sroa.0.0.copyload.i.i.i = load i64, ptr %13, align 8
  %14 = tail call noundef i32 @pthread_rwlock_unlock(ptr noundef nonnull %5) #37
  %15 = sitofp i64 %.sroa.0.0.copyload.i.i.i to double
  %16 = fdiv double %15, 1.000000e+09
  %17 = fdiv double %12, %16
  br label %18

18:                                               ; preds = %1, %_ZNK8WasmEdge10Statistics10Statistics17getInstrPerSecondEv.exit
  %.0 = phi double [ %17, %_ZNK8WasmEdge10Statistics10Statistics17getInstrPerSecondEv.exit ], [ 0.000000e+00, %1 ]
  ret double %.0
}